; Function Attrs: inlinehint mustprogress uwtable
define internal fastcc void @"_ZZN5Yosys10parse_blifEPNS_5RTLIL6DesignERSiNS0_8IdStringEbbbENK3$_6clEv"(ptr dead_on_unwind noalias nonnull writable writeonly align 4 captures(none) %0) unnamed_addr #11 align 2 personality ptr @__gxx_personality_v0 {
  %2 = load atomic i8, ptr @"_ZGVZZN5Yosys10parse_blifEPNS_5RTLIL6DesignERSiNS0_8IdStringEbbbENK3$_6clEvE2id" acquire, align 8
  %3 = icmp eq i8 %2, 0
  br i1 %3, label %4, label %10, !prof !79

4:                                                ; preds = %1
  %5 = tail call i32 @__cxa_guard_acquire(ptr nonnull @"_ZGVZZN5Yosys10parse_blifEPNS_5RTLIL6DesignERSiNS0_8IdStringEbbbENK3$_6clEvE2id") #29
  %.not = icmp eq i32 %5, 0
  br i1 %.not, label %10, label %6

6:                                                ; preds = %4
  %7 = invoke noundef i32 @_ZN5Yosys5RTLIL8IdString13get_referenceEPKc(ptr noundef nonnull getelementptr inbounds nuw (i8, ptr @.str.71, i64 1))
          to label %8 unwind label %18

8:                                                ; preds = %6
  store i32 %7, ptr @"_ZZZN5Yosys10parse_blifEPNS_5RTLIL6DesignERSiNS0_8IdStringEbbbENK3$_6clEvE2id", align 4, !tbaa !29
  %9 = tail call i32 @__cxa_atexit(ptr nonnull @_ZN5Yosys5RTLIL8IdStringD2Ev, ptr nonnull @"_ZZZN5Yosys10parse_blifEPNS_5RTLIL6DesignERSiNS0_8IdStringEbbbENK3$_6clEvE2id", ptr nonnull @__dso_handle) #29
  tail call void @__cxa_guard_release(ptr nonnull @"_ZGVZZN5Yosys10parse_blifEPNS_5RTLIL6DesignERSiNS0_8IdStringEbbbENK3$_6clEvE2id") #29
  br label %10

10:                                               ; preds = %8, %4, %1
  %11 = load i32, ptr @"_ZZZN5Yosys10parse_blifEPNS_5RTLIL6DesignERSiNS0_8IdStringEbbbENK3$_6clEvE2id", align 4, !tbaa !29
  %.not.i.i = icmp eq i32 %11, 0
  br i1 %.not.i.i, label %_ZN5Yosys5RTLIL8IdStringC2ERKS1_.exit, label %12

12:                                               ; preds = %10
  %13 = sext i32 %11 to i64
  %14 = load ptr, ptr @_ZN5Yosys5RTLIL8IdString24global_refcount_storage_E, align 8, !tbaa !35
  %15 = getelementptr inbounds nuw i32, ptr %14, i64 %13
  %16 = load i32, ptr %15, align 4, !tbaa !18
  %17 = add nsw i32 %16, 1
  store i32 %17, ptr %15, align 4, !tbaa !18
  br label %_ZN5Yosys5RTLIL8IdStringC2ERKS1_.exit

_ZN5Yosys5RTLIL8IdStringC2ERKS1_.exit:            ; preds = %10, %12
  store i32 %11, ptr %0, align 4, !tbaa !29
  ret void

18:                                               ; preds = %6
  %19 = landingpad { ptr, i32 }
          cleanup
  tail call void @__cxa_guard_abort(ptr nonnull @"_ZGVZZN5Yosys10parse_blifEPNS_5RTLIL6DesignERSiNS0_8IdStringEbbbENK3$_6clEvE2id") #29
  resume { ptr, i32 } %19
}